target datalayout = "e-m:e-p270:32:32-p271:32:32-p272:64:64-i64:64-i128:128-f80:128-n8:16:32:64-S128"
target triple = "x86_64-pc-linux-gnu"

%struct.pointf_s = type { double, double }

@.str.83 = private unnamed_addr constant [51 x i8] c"ellipse attrs0 %swid %.5f ht %.5f at (%.5f,%.5f);\0A\00", align 1
@.str.84 = private unnamed_addr constant [6 x i8] c"fill \00", align 1
@.str.85 = private unnamed_addr constant [1 x i8] zeroinitializer, align 1

; Function Attrs: nounwind uwtable
define internal void @pic_ellipse(ptr noundef %0, ptr noundef %1, i32 noundef %2) #0 {
  %4 = alloca ptr, align 8
  %5 = alloca ptr, align 8
  %6 = alloca i32, align 4
  store ptr %0, ptr %4, align 8, !tbaa !3
  store ptr %1, ptr %5, align 8, !tbaa !61
  store i32 %2, ptr %6, align 4, !tbaa !39
  %7 = load ptr, ptr %4, align 8, !tbaa !3
  %8 = load i32, ptr %6, align 4, !tbaa !39
  %9 = icmp ne i32 %8, 0
  %10 = select i1 %9, ptr @.str.84, ptr @.str.85
  %11 = load ptr, ptr %5, align 8, !tbaa !61
  %12 = getelementptr inbounds %struct.pointf_s, ptr %11, i64 1
  %13 = getelementptr inbounds nuw %struct.pointf_s, ptr %12, i32 0, i32 0
  %14 = load double, ptr %13, align 8, !tbaa !53
  %15 = load ptr, ptr %5, align 8, !tbaa !61
  %16 = getelementptr inbounds %struct.pointf_s, ptr %15, i64 0
  %17 = getelementptr inbounds nuw %struct.pointf_s, ptr %16, i32 0, i32 0
  %18 = load double, ptr %17, align 8, !tbaa !53
  %19 = fsub double %14, %18
  %20 = fmul double 2.000000e+00, %19
  %21 = fdiv double %20, 7.200000e+01
  %22 = load ptr, ptr %5, align 8, !tbaa !61
  %23 = getelementptr inbounds %struct.pointf_s, ptr %22, i64 1
  %24 = getelementptr inbounds nuw %struct.pointf_s, ptr %23, i32 0, i32 1
  %25 = load double, ptr %24, align 8, !tbaa !58
  %26 = load ptr, ptr %5, align 8, !tbaa !61
  %27 = getelementptr inbounds %struct.pointf_s, ptr %26, i64 0
  %28 = getelementptr inbounds nuw %struct.pointf_s, ptr %27, i32 0, i32 1
  %29 = load double, ptr %28, align 8, !tbaa !58
  %30 = fsub double %25, %29
  %31 = fmul double 2.000000e+00, %30
  %32 = fdiv double %31, 7.200000e+01
  %33 = load ptr, ptr %5, align 8, !tbaa !61
  %34 = getelementptr inbounds %struct.pointf_s, ptr %33, i64 0
  %35 = getelementptr inbounds nuw %struct.pointf_s, ptr %34, i32 0, i32 0
  %36 = load double, ptr %35, align 8, !tbaa !53
  %37 = fdiv double %36, 7.200000e+01
  %38 = load ptr, ptr %5, align 8, !tbaa !61
  %39 = getelementptr inbounds %struct.pointf_s, ptr %38, i64 0
  %40 = getelementptr inbounds nuw %struct.pointf_s, ptr %39, i32 0, i32 1
  %41 = load double, ptr %40, align 8, !tbaa !58
  %42 = fdiv double %41, 7.200000e+01
  call void (ptr, ptr, ...) @gvprintf(ptr noundef %7, ptr noundef @.str.83, ptr noundef %10, double noundef %21, double noundef %32, double noundef %37, double noundef %42)
  ret void
}