; Function Attrs: nounwind uwtable
define internal void @pic_ellipse(ptr noundef %0, ptr noundef readonly captures(none) %1, i32 noundef %2) #0 {
  %.not = icmp eq i32 %2, 0
  %4 = select i1 %.not, ptr @.str.85, ptr @.str.84
  %5 = getelementptr inbounds nuw i8, ptr %1, i64 16
  %6 = load double, ptr %5, align 8, !tbaa !52
  %7 = load double, ptr %1, align 8, !tbaa !52
  %8 = fsub double %6, %7
  %9 = fmul double %8, 2.000000e+00
  %10 = fdiv double %9, 7.200000e+01
  %11 = getelementptr inbounds nuw i8, ptr %1, i64 24
  %12 = load double, ptr %11, align 8, !tbaa !53
  %13 = getelementptr inbounds nuw i8, ptr %1, i64 8
  %14 = load double, ptr %13, align 8, !tbaa !53
  %15 = fsub double %12, %14
  %16 = fmul double %15, 2.000000e+00
  %17 = fdiv double %16, 7.200000e+01
  %18 = fdiv double %7, 7.200000e+01
  %19 = fdiv double %14, 7.200000e+01
  tail call void (ptr, ptr, ...) @gvprintf(ptr noundef %0, ptr noundef nonnull @.str.83, ptr noundef nonnull %4, double noundef %10, double noundef %17, double noundef %18, double noundef %19) #8
  ret void
}